target datalayout = "e-m:e-p270:32:32-p271:32:32-p272:64:64-i64:64-i128:128-f80:128-n8:16:32:64-S128"
target triple = "x86_64-pc-linux-gnu"

%struct.AVFilterLink = type { ptr, ptr, ptr, ptr, i32, i32, i32, i32, %struct.AVRational, i32, i32, i32, %struct.AVChannelLayout, %struct.AVRational, ptr, i32, %struct.AVFilterFormatsConfig, %struct.AVFilterFormatsConfig }
%struct.AVChannelLayout = type { i32, i32, %union.anon.0, ptr }
%union.anon.0 = type { i64 }
%struct.AVRational = type { i32, i32 }
%struct.AVFilterFormatsConfig = type { ptr, ptr, ptr, ptr, ptr }
%struct.FilterLinkInternal = type { %struct.FilterLink, ptr, %struct.FFFrameQueue, i32, i32, i64, i32, i32, i32, i32 }
%struct.FilterLink = type { %struct.AVFilterLink, ptr, i64, i64, i32, i32, i64, i64, i64, i64, %struct.AVRational, ptr }
%struct.FFFrameQueue = type { ptr, i64, i64, i64, %struct.FFFrameBucket, i64, i64, i64, i64, i32 }
%struct.FFFrameBucket = type { ptr }
%struct.AVFrame = type { [8 x ptr], [8 x i32], ptr, i32, i32, i32, i32, i32, %struct.AVRational, i64, i64, %struct.AVRational, i32, ptr, i32, i32, [8 x ptr], ptr, i32, ptr, i32, i32, i32, i32, i32, i32, i32, i64, ptr, i32, ptr, ptr, i64, i64, i64, i64, ptr, %struct.AVChannelLayout, i64 }

; Function Attrs: inlinehint nounwind uwtable
define internal ptr @ff_link_internal(ptr noundef %0) #2 {
  %2 = alloca ptr, align 8
  store ptr %0, ptr %2, align 8, !tbaa !4
  %3 = load ptr, ptr %2, align 8, !tbaa !4
  ret ptr %3
}

; Function Attrs: nounwind uwtable
define ptr @ff_default_get_audio_buffer(ptr noundef %0, i32 noundef %1) #0 {
  %3 = alloca ptr, align 8
  %4 = alloca ptr, align 8
  %5 = alloca i32, align 4
  %6 = alloca ptr, align 8
  %7 = alloca ptr, align 8
  %8 = alloca i32, align 4
  %9 = alloca i32, align 4
  %10 = alloca i32, align 4
  %11 = alloca i32, align 4
  %12 = alloca i32, align 4
  %13 = alloca i32, align 4
  %14 = alloca i32, align 4
  store ptr %0, ptr %4, align 8, !tbaa !4
  store i32 %1, ptr %5, align 4, !tbaa !9
  call void @llvm.lifetime.start.p0(i64 8, ptr %6) #6
  store ptr null, ptr %6, align 8, !tbaa !32
  call void @llvm.lifetime.start.p0(i64 8, ptr %7) #6
  %15 = load ptr, ptr %4, align 8, !tbaa !4
  %16 = call ptr @ff_link_internal(ptr noundef %15)
  store ptr %16, ptr %7, align 8, !tbaa !36
  call void @llvm.lifetime.start.p0(i64 4, ptr %8) #6
  %17 = load ptr, ptr %4, align 8, !tbaa !4
  %18 = getelementptr inbounds nuw %struct.AVFilterLink, ptr %17, i32 0, i32 12
  %19 = getelementptr inbounds nuw %struct.AVChannelLayout, ptr %18, i32 0, i32 1
  %20 = load i32, ptr %19, align 4, !tbaa !38
  store i32 %20, ptr %8, align 4, !tbaa !9
  call void @llvm.lifetime.start.p0(i64 4, ptr %9) #6
  %21 = call i64 @av_cpu_max_align()
  %22 = trunc i64 %21 to i32
  store i32 %22, ptr %9, align 4, !tbaa !9
  %23 = load ptr, ptr %7, align 8, !tbaa !36
  %24 = getelementptr inbounds nuw %struct.FilterLinkInternal, ptr %23, i32 0, i32 1
  %25 = load ptr, ptr %24, align 8, !tbaa !39
  %26 = icmp ne ptr %25, null
  br i1 %26, label %43, label %27

27:                                               ; preds = %2
  %28 = load i32, ptr %8, align 4, !tbaa !9
  %29 = load i32, ptr %5, align 4, !tbaa !9
  %30 = load ptr, ptr %4, align 8, !tbaa !4
  %31 = getelementptr inbounds nuw %struct.AVFilterLink, ptr %30, i32 0, i32 5
  %32 = load i32, ptr %31, align 4, !tbaa !47
  %33 = load i32, ptr %9, align 4, !tbaa !9
  %34 = call ptr @ff_frame_pool_audio_init(ptr noundef @av_buffer_allocz, i32 noundef %28, i32 noundef %29, i32 noundef %32, i32 noundef %33)
  %35 = load ptr, ptr %7, align 8, !tbaa !36
  %36 = getelementptr inbounds nuw %struct.FilterLinkInternal, ptr %35, i32 0, i32 1
  store ptr %34, ptr %36, align 8, !tbaa !39
  %37 = load ptr, ptr %7, align 8, !tbaa !36
  %38 = getelementptr inbounds nuw %struct.FilterLinkInternal, ptr %37, i32 0, i32 1
  %39 = load ptr, ptr %38, align 8, !tbaa !39
  %40 = icmp ne ptr %39, null
  br i1 %40, label %42, label %41

41:                                               ; preds = %27
  store ptr null, ptr %3, align 8
  store i32 1, ptr %10, align 4
  br label %131

42:                                               ; preds = %27
  br label %90

43:                                               ; preds = %2
  call void @llvm.lifetime.start.p0(i64 4, ptr %11) #6
  store i32 0, ptr %11, align 4, !tbaa !9
  call void @llvm.lifetime.start.p0(i64 4, ptr %12) #6
  store i32 0, ptr %12, align 4, !tbaa !9
  call void @llvm.lifetime.start.p0(i64 4, ptr %13) #6
  store i32 0, ptr %13, align 4, !tbaa !9
  call void @llvm.lifetime.start.p0(i64 4, ptr %14) #6
  store i32 -1, ptr %14, align 4, !tbaa !9
  %44 = load ptr, ptr %7, align 8, !tbaa !36
  %45 = getelementptr inbounds nuw %struct.FilterLinkInternal, ptr %44, i32 0, i32 1
  %46 = load ptr, ptr %45, align 8, !tbaa !39
  %47 = call i32 @ff_frame_pool_get_audio_config(ptr noundef %46, ptr noundef %11, ptr noundef %12, ptr noundef %14, ptr noundef %13)
  %48 = icmp slt i32 %47, 0
  br i1 %48, label %49, label %50

49:                                               ; preds = %43
  store ptr null, ptr %3, align 8
  store i32 1, ptr %10, align 4
  br label %87

50:                                               ; preds = %43
  %51 = load i32, ptr %11, align 4, !tbaa !9
  %52 = load i32, ptr %8, align 4, !tbaa !9
  %53 = icmp ne i32 %51, %52
  br i1 %53, label %68, label %54

54:                                               ; preds = %50
  %55 = load i32, ptr %12, align 4, !tbaa !9
  %56 = load i32, ptr %5, align 4, !tbaa !9
  %57 = icmp slt i32 %55, %56
  br i1 %57, label %68, label %58

58:                                               ; preds = %54
  %59 = load i32, ptr %14, align 4, !tbaa !9
  %60 = load ptr, ptr %4, align 8, !tbaa !4
  %61 = getelementptr inbounds nuw %struct.AVFilterLink, ptr %60, i32 0, i32 5
  %62 = load i32, ptr %61, align 4, !tbaa !47
  %63 = icmp ne i32 %59, %62
  br i1 %63, label %68, label %64

64:                                               ; preds = %58
  %65 = load i32, ptr %13, align 4, !tbaa !9
  %66 = load i32, ptr %9, align 4, !tbaa !9
  %67 = icmp ne i32 %65, %66
  br i1 %67, label %68, label %86

68:                                               ; preds = %64, %58, %54, %50
  %69 = load ptr, ptr %7, align 8, !tbaa !36
  %70 = getelementptr inbounds nuw %struct.FilterLinkInternal, ptr %69, i32 0, i32 1
  call void @ff_frame_pool_uninit(ptr noundef %70)
  %71 = load i32, ptr %8, align 4, !tbaa !9
  %72 = load i32, ptr %5, align 4, !tbaa !9
  %73 = load ptr, ptr %4, align 8, !tbaa !4
  %74 = getelementptr inbounds nuw %struct.AVFilterLink, ptr %73, i32 0, i32 5
  %75 = load i32, ptr %74, align 4, !tbaa !47
  %76 = load i32, ptr %9, align 4, !tbaa !9
  %77 = call ptr @ff_frame_pool_audio_init(ptr noundef @av_buffer_allocz, i32 noundef %71, i32 noundef %72, i32 noundef %75, i32 noundef %76)
  %78 = load ptr, ptr %7, align 8, !tbaa !36
  %79 = getelementptr inbounds nuw %struct.FilterLinkInternal, ptr %78, i32 0, i32 1
  store ptr %77, ptr %79, align 8, !tbaa !39
  %80 = load ptr, ptr %7, align 8, !tbaa !36
  %81 = getelementptr inbounds nuw %struct.FilterLinkInternal, ptr %80, i32 0, i32 1
  %82 = load ptr, ptr %81, align 8, !tbaa !39
  %83 = icmp ne ptr %82, null
  br i1 %83, label %85, label %84

84:                                               ; preds = %68
  store ptr null, ptr %3, align 8
  store i32 1, ptr %10, align 4
  br label %87

85:                                               ; preds = %68
  br label %86

86:                                               ; preds = %85, %64
  store i32 0, ptr %10, align 4
  br label %87

87:                                               ; preds = %86, %84, %49
  call void @llvm.lifetime.end.p0(i64 4, ptr %14) #6
  call void @llvm.lifetime.end.p0(i64 4, ptr %13) #6
  call void @llvm.lifetime.end.p0(i64 4, ptr %12) #6
  call void @llvm.lifetime.end.p0(i64 4, ptr %11) #6
  %88 = load i32, ptr %10, align 4
  switch i32 %88, label %131 [
    i32 0, label %89
  ]

89:                                               ; preds = %87
  br label %90

90:                                               ; preds = %89, %42
  %91 = load ptr, ptr %7, align 8, !tbaa !36
  %92 = getelementptr inbounds nuw %struct.FilterLinkInternal, ptr %91, i32 0, i32 1
  %93 = load ptr, ptr %92, align 8, !tbaa !39
  %94 = call ptr @ff_frame_pool_get(ptr noundef %93)
  store ptr %94, ptr %6, align 8, !tbaa !32
  %95 = load ptr, ptr %6, align 8, !tbaa !32
  %96 = icmp ne ptr %95, null
  br i1 %96, label %98, label %97

97:                                               ; preds = %90
  store ptr null, ptr %3, align 8
  store i32 1, ptr %10, align 4
  br label %131

98:                                               ; preds = %90
  %99 = load i32, ptr %5, align 4, !tbaa !9
  %100 = load ptr, ptr %6, align 8, !tbaa !32
  %101 = getelementptr inbounds nuw %struct.AVFrame, ptr %100, i32 0, i32 5
  store i32 %99, ptr %101, align 8, !tbaa !48
  %102 = load ptr, ptr %4, align 8, !tbaa !4
  %103 = getelementptr inbounds nuw %struct.AVFilterLink, ptr %102, i32 0, i32 12
  %104 = getelementptr inbounds nuw %struct.AVChannelLayout, ptr %103, i32 0, i32 0
  %105 = load i32, ptr %104, align 8, !tbaa !53
  %106 = icmp ne i32 %105, 0
  br i1 %106, label %107, label %115

107:                                              ; preds = %98
  %108 = load ptr, ptr %6, align 8, !tbaa !32
  %109 = getelementptr inbounds nuw %struct.AVFrame, ptr %108, i32 0, i32 37
  %110 = load ptr, ptr %4, align 8, !tbaa !4
  %111 = getelementptr inbounds nuw %struct.AVFilterLink, ptr %110, i32 0, i32 12
  %112 = call i32 @av_channel_layout_copy(ptr noundef %109, ptr noundef %111)
  %113 = icmp slt i32 %112, 0
  br i1 %113, label %114, label %115

114:                                              ; preds = %107
  call void @av_frame_free(ptr noundef %6)
  store ptr null, ptr %3, align 8
  store i32 1, ptr %10, align 4
  br label %131

115:                                              ; preds = %107, %98
  %116 = load ptr, ptr %4, align 8, !tbaa !4
  %117 = getelementptr inbounds nuw %struct.AVFilterLink, ptr %116, i32 0, i32 11
  %118 = load i32, ptr %117, align 8, !tbaa !54
  %119 = load ptr, ptr %6, align 8, !tbaa !32
  %120 = getelementptr inbounds nuw %struct.AVFrame, ptr %119, i32 0, i32 15
  store i32 %118, ptr %120, align 4, !tbaa !55
  %121 = load ptr, ptr %6, align 8, !tbaa !32
  %122 = getelementptr inbounds nuw %struct.AVFrame, ptr %121, i32 0, i32 2
  %123 = load ptr, ptr %122, align 8, !tbaa !56
  %124 = load i32, ptr %5, align 4, !tbaa !9
  %125 = load i32, ptr %8, align 4, !tbaa !9
  %126 = load ptr, ptr %4, align 8, !tbaa !4
  %127 = getelementptr inbounds nuw %struct.AVFilterLink, ptr %126, i32 0, i32 5
  %128 = load i32, ptr %127, align 4, !tbaa !47
  %129 = call i32 @av_samples_set_silence(ptr noundef %123, i32 noundef 0, i32 noundef %124, i32 noundef %125, i32 noundef %128)
  %130 = load ptr, ptr %6, align 8, !tbaa !32
  store ptr %130, ptr %3, align 8
  store i32 1, ptr %10, align 4
  br label %131

131:                                              ; preds = %115, %114, %97, %87, %41
  call void @llvm.lifetime.end.p0(i64 4, ptr %9) #6
  call void @llvm.lifetime.end.p0(i64 4, ptr %8) #6
  call void @llvm.lifetime.end.p0(i64 8, ptr %7) #6
  call void @llvm.lifetime.end.p0(i64 8, ptr %6) #6
  %132 = load ptr, ptr %3, align 8
  ret ptr %132
}