; Function Attrs: nounwind uwtable
define ptr @ff_default_get_audio_buffer(ptr noundef %0, i32 noundef %1) local_unnamed_addr #0 {
  %3 = alloca ptr, align 8
  %4 = alloca i32, align 4
  %5 = alloca i32, align 4
  %6 = alloca i32, align 4
  %7 = alloca i32, align 4
  call void @llvm.lifetime.start.p0(i64 8, ptr nonnull %3) #5
  store ptr null, ptr %3, align 8, !tbaa !33
  %8 = getelementptr inbounds nuw i8, ptr %0, i64 72
  %9 = getelementptr inbounds nuw i8, ptr %0, i64 76
  %10 = load i32, ptr %9, align 4, !tbaa !35
  %11 = tail call i64 @av_cpu_max_align() #5
  %12 = trunc i64 %11 to i32
  %13 = getelementptr inbounds nuw i8, ptr %0, i64 280
  %14 = load ptr, ptr %13, align 8, !tbaa !36
  %.not = icmp eq ptr %14, null
  br i1 %.not, label %15, label %19

15:                                               ; preds = %2
  %16 = getelementptr inbounds nuw i8, ptr %0, i64 36
  %17 = load i32, ptr %16, align 4, !tbaa !44
  %18 = tail call ptr @ff_frame_pool_audio_init(ptr noundef nonnull @av_buffer_allocz, i32 noundef %10, i32 noundef %1, i32 noundef %17, i32 noundef %12) #5
  store ptr %18, ptr %13, align 8, !tbaa !36
  %.not32 = icmp eq ptr %18, null
  br i1 %.not32, label %56, label %36

19:                                               ; preds = %2
  call void @llvm.lifetime.start.p0(i64 4, ptr nonnull %4) #5
  store i32 0, ptr %4, align 4, !tbaa !45
  call void @llvm.lifetime.start.p0(i64 4, ptr nonnull %5) #5
  store i32 0, ptr %5, align 4, !tbaa !45
  call void @llvm.lifetime.start.p0(i64 4, ptr nonnull %6) #5
  store i32 0, ptr %6, align 4, !tbaa !45
  call void @llvm.lifetime.start.p0(i64 4, ptr nonnull %7) #5
  store i32 -1, ptr %7, align 4, !tbaa !45
  %20 = call i32 @ff_frame_pool_get_audio_config(ptr noundef nonnull %14, ptr noundef nonnull %4, ptr noundef nonnull %5, ptr noundef nonnull %7, ptr noundef nonnull %6) #5
  %21 = icmp slt i32 %20, 0
  br i1 %21, label %35, label %22

22:                                               ; preds = %19
  %23 = load i32, ptr %4, align 4, !tbaa !45
  %.not33 = icmp ne i32 %23, %10
  %24 = load i32, ptr %5, align 4
  %25 = icmp slt i32 %24, %1
  %or.cond = select i1 %.not33, i1 true, i1 %25
  br i1 %or.cond, label %31, label %26

26:                                               ; preds = %22
  %27 = load i32, ptr %7, align 4, !tbaa !45
  %28 = getelementptr inbounds nuw i8, ptr %0, i64 36
  %29 = load i32, ptr %28, align 4, !tbaa !44
  %.not34 = icmp eq i32 %27, %29
  %30 = load i32, ptr %6, align 4
  %.not35 = icmp eq i32 %30, %12
  %or.cond40 = select i1 %.not34, i1 %.not35, i1 false
  br i1 %or.cond40, label %..critedge_crit_edge, label %31

..critedge_crit_edge:                             ; preds = %26
  %.pre.pre = load ptr, ptr %13, align 8, !tbaa !36
  br label %.critedge

31:                                               ; preds = %26, %22
  call void @ff_frame_pool_uninit(ptr noundef nonnull %13) #5
  %32 = getelementptr inbounds nuw i8, ptr %0, i64 36
  %33 = load i32, ptr %32, align 4, !tbaa !44
  %34 = call ptr @ff_frame_pool_audio_init(ptr noundef nonnull @av_buffer_allocz, i32 noundef %10, i32 noundef %1, i32 noundef %33, i32 noundef %12) #5
  store ptr %34, ptr %13, align 8, !tbaa !36
  %.not36 = icmp eq ptr %34, null
  br i1 %.not36, label %35, label %.critedge

.critedge:                                        ; preds = %..critedge_crit_edge, %31
  %.pre = phi ptr [ %.pre.pre, %..critedge_crit_edge ], [ %34, %31 ]
  call void @llvm.lifetime.end.p0(i64 4, ptr nonnull %7) #5
  call void @llvm.lifetime.end.p0(i64 4, ptr nonnull %6) #5
  call void @llvm.lifetime.end.p0(i64 4, ptr nonnull %5) #5
  call void @llvm.lifetime.end.p0(i64 4, ptr nonnull %4) #5
  br label %36

35:                                               ; preds = %31, %19
  call void @llvm.lifetime.end.p0(i64 4, ptr nonnull %7) #5
  call void @llvm.lifetime.end.p0(i64 4, ptr nonnull %6) #5
  call void @llvm.lifetime.end.p0(i64 4, ptr nonnull %5) #5
  call void @llvm.lifetime.end.p0(i64 4, ptr nonnull %4) #5
  br label %56

36:                                               ; preds = %.critedge, %15
  %37 = phi ptr [ %.pre, %.critedge ], [ %18, %15 ]
  %38 = call ptr @ff_frame_pool_get(ptr noundef %37) #5
  store ptr %38, ptr %3, align 8, !tbaa !33
  %.not37 = icmp eq ptr %38, null
  br i1 %.not37, label %56, label %39

39:                                               ; preds = %36
  %40 = getelementptr inbounds nuw i8, ptr %38, i64 112
  store i32 %1, ptr %40, align 8, !tbaa !46
  %41 = load i32, ptr %8, align 8, !tbaa !51
  %.not38 = icmp eq i32 %41, 0
  br i1 %.not38, label %47, label %42

42:                                               ; preds = %39
  %43 = getelementptr inbounds nuw i8, ptr %38, i64 384
  %44 = call i32 @av_channel_layout_copy(ptr noundef nonnull %43, ptr noundef nonnull %8) #5
  %45 = icmp slt i32 %44, 0
  br i1 %45, label %46, label %47

46:                                               ; preds = %42
  call void @av_frame_free(ptr noundef nonnull %3) #5
  br label %56

47:                                               ; preds = %42, %39
  %48 = getelementptr inbounds nuw i8, ptr %0, i64 64
  %49 = load i32, ptr %48, align 8, !tbaa !52
  %50 = getelementptr inbounds nuw i8, ptr %38, i64 180
  store i32 %49, ptr %50, align 4, !tbaa !53
  %51 = getelementptr inbounds nuw i8, ptr %38, i64 96
  %52 = load ptr, ptr %51, align 8, !tbaa !54
  %53 = getelementptr inbounds nuw i8, ptr %0, i64 36
  %54 = load i32, ptr %53, align 4, !tbaa !44
  %55 = call i32 @av_samples_set_silence(ptr noundef %52, i32 noundef 0, i32 noundef %1, i32 noundef %10, i32 noundef %54) #5
  br label %56

56:                                               ; preds = %36, %35, %15, %47, %46
  %.030 = phi ptr [ null, %46 ], [ %38, %47 ], [ null, %35 ], [ null, %15 ], [ null, %36 ]
  call void @llvm.lifetime.end.p0(i64 8, ptr nonnull %3) #5
  ret ptr %.030
}